target datalayout = "e-m:e-p270:32:32-p271:32:32-p272:64:64-i64:64-i128:128-f80:128-n8:16:32:64-S128"
target triple = "x86_64-pc-linux-gnu"

%struct.strbuf_t = type { ptr, i64, i64, i32, i32, i32 }
%struct.json_config_t = type { [256 x i32], [256 x i8], %struct.strbuf_t, i32, i32, i32, i32, i32, i32, i32, i32, i32 }

@.str.15 = private unnamed_addr constant [20 x i8] c"expected 1 argument\00", align 1
@.str.16 = private unnamed_addr constant [41 x i8] c"BUG: Unable to fetch CJSON configuration\00", align 1

; Function Attrs: inlinehint nounwind uwtable
define internal ptr @strbuf_string(ptr noundef %0, ptr noundef %1) #4 {
  %3 = alloca ptr, align 8
  %4 = alloca ptr, align 8
  store ptr %0, ptr %3, align 8, !tbaa !15
  store ptr %1, ptr %4, align 8, !tbaa !49
  %5 = load ptr, ptr %4, align 8, !tbaa !49
  %6 = icmp ne ptr %5, null
  br i1 %6, label %7, label %12

7:                                                ; preds = %2
  %8 = load ptr, ptr %3, align 8, !tbaa !15
  %9 = getelementptr inbounds nuw %struct.strbuf_t, ptr %8, i32 0, i32 2
  %10 = load i64, ptr %9, align 8, !tbaa !48
  %11 = load ptr, ptr %4, align 8, !tbaa !49
  store i64 %10, ptr %11, align 8, !tbaa !20
  br label %12

12:                                               ; preds = %7, %2
  %13 = load ptr, ptr %3, align 8, !tbaa !15
  %14 = getelementptr inbounds nuw %struct.strbuf_t, ptr %13, i32 0, i32 0
  %15 = load ptr, ptr %14, align 8, !tbaa !51
  ret ptr %15
}

; Function Attrs: inlinehint nounwind uwtable
define internal void @strbuf_reset(ptr noundef %0) #4 {
  %2 = alloca ptr, align 8
  store ptr %0, ptr %2, align 8, !tbaa !15
  %3 = load ptr, ptr %2, align 8, !tbaa !15
  %4 = getelementptr inbounds nuw %struct.strbuf_t, ptr %3, i32 0, i32 2
  store i64 0, ptr %4, align 8, !tbaa !48
  ret void
}

; Function Attrs: nounwind uwtable
define internal ptr @json_fetch_config(ptr noundef %0) #0 {
  %2 = alloca ptr, align 8
  %3 = alloca ptr, align 8
  store ptr %0, ptr %2, align 8, !tbaa !4
  call void @llvm.lifetime.start.p0(i64 8, ptr %3) #9
  %4 = load ptr, ptr %2, align 8, !tbaa !4
  %5 = call ptr @lua_touserdata(ptr noundef %4, i32 noundef -10003)
  store ptr %5, ptr %3, align 8, !tbaa !15
  %6 = load ptr, ptr %3, align 8, !tbaa !15
  %7 = icmp ne ptr %6, null
  br i1 %7, label %11, label %8

8:                                                ; preds = %1
  %9 = load ptr, ptr %2, align 8, !tbaa !4
  %10 = call i32 (ptr, ptr, ...) @luaL_error(ptr noundef %9, ptr noundef @.str.16)
  br label %11

11:                                               ; preds = %8, %1
  %12 = load ptr, ptr %3, align 8, !tbaa !15
  call void @llvm.lifetime.end.p0(i64 8, ptr %3) #9
  ret ptr %12
}

; Function Attrs: nounwind uwtable
define internal i32 @json_encode(ptr noundef %0) #0 {
  %2 = alloca ptr, align 8
  %3 = alloca ptr, align 8
  %4 = alloca %struct.strbuf_t, align 8
  %5 = alloca ptr, align 8
  %6 = alloca ptr, align 8
  %7 = alloca i64, align 8
  store ptr %0, ptr %2, align 8, !tbaa !4
  call void @llvm.lifetime.start.p0(i64 8, ptr %3) #9
  %8 = load ptr, ptr %2, align 8, !tbaa !4
  %9 = call ptr @json_fetch_config(ptr noundef %8)
  store ptr %9, ptr %3, align 8, !tbaa !15
  call void @llvm.lifetime.start.p0(i64 40, ptr %4) #9
  call void @llvm.lifetime.start.p0(i64 8, ptr %5) #9
  call void @llvm.lifetime.start.p0(i64 8, ptr %6) #9
  call void @llvm.lifetime.start.p0(i64 8, ptr %7) #9
  %10 = load ptr, ptr %2, align 8, !tbaa !4
  %11 = call i32 @lua_gettop(ptr noundef %10)
  %12 = icmp eq i32 %11, 1
  br i1 %12, label %16, label %13

13:                                               ; preds = %1
  %14 = load ptr, ptr %2, align 8, !tbaa !4
  %15 = call i32 @luaL_argerror(ptr noundef %14, i32 noundef 1, ptr noundef @.str.15)
  br label %16

16:                                               ; preds = %13, %1
  %17 = load ptr, ptr %3, align 8, !tbaa !15
  %18 = getelementptr inbounds nuw %struct.json_config_t, ptr %17, i32 0, i32 9
  %19 = load i32, ptr %18, align 8, !tbaa !16
  %20 = icmp ne i32 %19, 0
  br i1 %20, label %23, label %21

21:                                               ; preds = %16
  store ptr %4, ptr %5, align 8, !tbaa !15
  %22 = load ptr, ptr %5, align 8, !tbaa !15
  call void @strbuf_init(ptr noundef %22, i64 noundef 0)
  br label %27

23:                                               ; preds = %16
  %24 = load ptr, ptr %3, align 8, !tbaa !15
  %25 = getelementptr inbounds nuw %struct.json_config_t, ptr %24, i32 0, i32 2
  store ptr %25, ptr %5, align 8, !tbaa !15
  %26 = load ptr, ptr %5, align 8, !tbaa !15
  call void @strbuf_reset(ptr noundef %26)
  br label %27

27:                                               ; preds = %23, %21
  %28 = load ptr, ptr %2, align 8, !tbaa !4
  %29 = load ptr, ptr %3, align 8, !tbaa !15
  %30 = load ptr, ptr %5, align 8, !tbaa !15
  call void @json_append_data(ptr noundef %28, ptr noundef %29, i32 noundef 0, ptr noundef %30)
  %31 = load ptr, ptr %5, align 8, !tbaa !15
  %32 = call ptr @strbuf_string(ptr noundef %31, ptr noundef %7)
  store ptr %32, ptr %6, align 8, !tbaa !11
  %33 = load ptr, ptr %2, align 8, !tbaa !4
  %34 = load ptr, ptr %6, align 8, !tbaa !11
  %35 = load i64, ptr %7, align 8, !tbaa !20
  call void @lua_pushlstring(ptr noundef %33, ptr noundef %34, i64 noundef %35)
  %36 = load ptr, ptr %3, align 8, !tbaa !15
  %37 = getelementptr inbounds nuw %struct.json_config_t, ptr %36, i32 0, i32 9
  %38 = load i32, ptr %37, align 8, !tbaa !16
  %39 = icmp ne i32 %38, 0
  br i1 %39, label %42, label %40

40:                                               ; preds = %27
  %41 = load ptr, ptr %5, align 8, !tbaa !15
  call void @strbuf_free(ptr noundef %41)
  br label %42

42:                                               ; preds = %40, %27
  call void @llvm.lifetime.end.p0(i64 8, ptr %7) #9
  call void @llvm.lifetime.end.p0(i64 8, ptr %6) #9
  call void @llvm.lifetime.end.p0(i64 8, ptr %5) #9
  call void @llvm.lifetime.end.p0(i64 40, ptr %4) #9
  call void @llvm.lifetime.end.p0(i64 8, ptr %3) #9
  ret i32 1
}