; Function Attrs: nounwind uwtable
define internal noundef i32 @json_encode(ptr noundef %0) #0 {
  %2 = alloca %struct.strbuf_t, align 8
  %3 = tail call ptr @lua_touserdata(ptr noundef %0, i32 noundef -10003) #12
  %.not.i = icmp eq ptr %3, null
  br i1 %.not.i, label %4, label %json_fetch_config.exit

4:                                                ; preds = %1
  %5 = tail call i32 (ptr, ptr, ...) @luaL_error(ptr noundef %0, ptr noundef nonnull @.str.16) #12
  br label %json_fetch_config.exit

json_fetch_config.exit:                           ; preds = %1, %4
  call void @llvm.lifetime.start.p0(i64 40, ptr nonnull %2) #12
  %6 = tail call i32 @lua_gettop(ptr noundef %0) #12
  %7 = icmp eq i32 %6, 1
  br i1 %7, label %10, label %8

8:                                                ; preds = %json_fetch_config.exit
  %9 = tail call i32 @luaL_argerror(ptr noundef %0, i32 noundef 1, ptr noundef nonnull @.str.15) #12
  br label %10

10:                                               ; preds = %8, %json_fetch_config.exit
  %11 = getelementptr inbounds nuw i8, ptr %3, i64 1344
  %12 = load i32, ptr %11, align 8, !tbaa !19
  %.not = icmp eq i32 %12, 0
  br i1 %.not, label %13, label %14

13:                                               ; preds = %10
  call void @strbuf_init(ptr noundef nonnull %2, i64 noundef 0) #12
  br label %17

14:                                               ; preds = %10
  %15 = getelementptr inbounds nuw i8, ptr %3, i64 1280
  %16 = getelementptr inbounds nuw i8, ptr %3, i64 1296
  store i64 0, ptr %16, align 8, !tbaa !32
  br label %17

17:                                               ; preds = %14, %13
  %.0 = phi ptr [ %15, %14 ], [ %2, %13 ]
  call fastcc void @json_append_data(ptr noundef %0, ptr noundef nonnull %3, i32 noundef 0, ptr noundef nonnull %.0)
  %.0.val = load ptr, ptr %.0, align 8, !tbaa !33
  %18 = getelementptr i8, ptr %.0, i64 16
  %.0.val16 = load i64, ptr %18, align 8, !tbaa !32
  call void @lua_pushlstring(ptr noundef %0, ptr noundef %.0.val, i64 noundef %.0.val16) #12
  %19 = load i32, ptr %11, align 8, !tbaa !19
  %.not15 = icmp eq i32 %19, 0
  br i1 %.not15, label %20, label %21

20:                                               ; preds = %17
  call void @strbuf_free(ptr noundef nonnull %.0) #12
  br label %21

21:                                               ; preds = %20, %17
  call void @llvm.lifetime.end.p0(i64 40, ptr nonnull %2) #12
  ret i32 1
}